Certificate:
    Data:
        Version: 3 (0x2)
        Serial Number: 1 (0x1)
        Signature Algorithm: md5WithRSAEncryption
        Issuer: C=DE, ST=Bayern, L=Munich, O=Home, OU=Apache WSS4J, CN=Werner
        Validity
            Not Before: Feb 29 10:51:17 2004 GMT
            Not After : Feb 28 10:51:17 2005 GMT
        Subject: C=DE, ST=Bayern, L=Munich, O=Apache, OU=WSS4J, CN=werner
        Subject Public Key Info:
            Public Key Algorithm: dsaEncryption
            DSA Public Key:
                pub: 
                    00:e2:aa:a5:25:3a:2e:7b:7f:88:1a:73:a1:d1:1a:
                    2d:5f:a1:fa:2b:bf:0c:de:55:f2:88:34:21:6c:eb:
                    71:5a:2c:ce:e4:d1:b4:e6:7b:87:f8:33:2b:83:4c:
                    4a:05:d0:f5:6c:50:b7:4a:aa:57:44:7a:7a:6c:e7:
                    37:d1:2c:8d:97:98:34:e1:6b:72:a3:e9:cb:69:02:
                    57:e9:0d:5d:ab:e8:a2:47:1d:15:01:cf:3d:7b:a8:
                    c3:23:ea:8e:85:c9:e8:74:60:64:a8:c1:07:16:b2:
                    87:6b:5d:c9:f8:eb:65:23:3e:2d:33:8a:9a:8f:09:
                    e0:12:45:8d:7f:fe:44:70:e1
                P:   
                    00:fd:7f:53:81:1d:75:12:29:52:df:4a:9c:2e:ec:
                    e4:e7:f6:11:b7:52:3c:ef:44:00:c3:1e:3f:80:b6:
                    51:26:69:45:5d:40:22:51:fb:59:3d:8d:58:fa:bf:
                    c5:f5:ba:30:f6:cb:9b:55:6c:d7:81:3b:80:1d:34:
                    6f:f2:66:60:b7:6b:99:50:a5:a4:9f:9f:e8:04:7b:
                    10:22:c2:4f:bb:a9:d7:fe:b7:c6:1b:f8:3b:57:e7:
                    c6:a8:a6:15:0f:04:fb:83:f6:d3:c5:1e:c3:02:35:
                    54:13:5a:16:91:32:f6:75:f3:ae:2b:61:d7:2a:ef:
                    f2:22:03:19:9d:d1:48:01:c7
                Q:   
                    00:97:60:50:8f:15:23:0b:cc:b2:92:b9:82:a2:eb:
                    84:0b:f0:58:1c:f5
                G:   
                    00:f7:e1:a0:85:d6:9b:3d:de:cb:bc:ab:5c:36:b8:
                    57:b9:79:94:af:bb:fa:3a:ea:82:f9:57:4c:0b:3d:
                    07:82:67:51:59:57:8e:ba:d4:59:4f:e6:71:07:10:
                    81:80:b4:49:16:71:23:e8:4c:28:16:13:b7:cf:09:
                    32:8c:c8:a6:e1:3c:16:7a:8b:54:7c:8d:28:e0:a3:
                    ae:1e:2b:b3:a6:75:91:6e:a3:7f:0b:fa:21:35:62:
                    f1:fb:62:7a:01:24:3b:cc:a4:f1:be:a8:51:90:89:
                    a8:83:df:e1:5a:e5:9f:06:92:8b:66:5e:80:7b:55:
                    25:64:01:4c:3b:fe:cf:49:2a
        X509v3 extensions:
            X509v3 Basic Constraints: 
                CA:FALSE
            Netscape Comment: 
                OpenSSL Generated Certificate
            X509v3 Subject Key Identifier: 
                55:B1:89:EB:BB:5E:9D:51:54:1C:50:AE:33:84:FC:22:E7:B6:4A:21
            X509v3 Authority Key Identifier: 
                keyid:D0:C2:5B:D0:A4:D4:EB:05:FD:7C:4C:0E:A7:1E:2F:A0:CA:68:4F:3A
                DirName:/C=DE/ST=Bayern/L=Munich/O=Home/OU=Apache WSS4J/CN=Werner
                serial:00

    Signature Algorithm: md5WithRSAEncryption
        4b:e7:2b:8f:1b:19:92:34:52:af:b5:97:61:33:53:88:c0:dc:
        db:fd:1c:30:11:3b:38:ab:5a:b4:4f:e6:3a:91:67:ba:89:68:
        1e:9b:40:70:bc:0c:1d:07:c2:a0:46:c9:fb:e1:4b:02:10:fc:
        7d:98:81:d7:98:9f:4b:7c:24:4c:1d:b1:6a:45:ca:5b:e7:44:
        a3:e6:e8:17:8d:1d:87:72:68:86:a4:c3:04:08:b0:ca:09:78:
        c0:2c:f5:01:3e:6e:ef:eb:64:dc:6c:1e:ad:74:2a:15:87:ec:
        c9:b5:c4:de:47:6a:27:f7:27:a2:eb:8d:ac:16:b9:c2:2b:16:
        ce:b0
-----BEGIN CERTIFICATE-----
MIIERjCCA6+gAwIBAgIBATANBgkqhkiG9w0BAQQFADBmMQswCQYDVQQGEwJERTEP
MA0GA1UECBMGQmF5ZXJuMQ8wDQYDVQQHEwZNdW5pY2gxDTALBgNVBAoTBEhvbWUx
FTATBgNVBAsTDEFwYWNoZSBXU1M0SjEPMA0GA1UEAxMGV2VybmVyMB4XDTA0MDIy
OTEwNTExN1oXDTA1MDIyODEwNTExN1owYTELMAkGA1UEBhMCREUxDzANBgNVBAgT
BkJheWVybjEPMA0GA1UEBxMGTXVuaWNoMQ8wDQYDVQQKEwZBcGFjaGUxDjAMBgNV
BAsTBVdTUzRKMQ8wDQYDVQQDEwZ3ZXJuZXIwggG4MIIBLAYHKoZIzjgEATCCAR8C
gYEA/X9TgR11EilS30qcLuzk5/YRt1I870QAwx4/gLZRJmlFXUAiUftZPY1Y+r/F
9bow9subVWzXgTuAHTRv8mZgt2uZUKWkn5/oBHsQIsJPu6nX/rfGG/g7V+fGqKYV
DwT7g/bTxR7DAjVUE1oWkTL2dfOuK2HXKu/yIgMZndFIAccCFQCXYFCPFSMLzLKS
uYKi64QL8Fgc9QKBgQD34aCF1ps93su8q1w2uFe5eZSvu/o66oL5V0wLPQeCZ1FZ
V4661FlP5nEHEIGAtEkWcSPoTCgWE7fPCTKMyKbhPBZ6i1R8jSjgo64eK7OmdZFu
o38L+iE1YvH7YnoBJDvMpPG+qFGQiaiD3+Fa5Z8GkotmXoB7VSVkAUw7/s9JKgOB
hQACgYEA4qqlJToue3+IGnOh0RotX6H6K78M3lXyiDQhbOtxWizO5NG05nuH+DMr
g0xKBdD1bFC3SqpXRHp6bOc30SyNl5g04Wtyo+nLaQJX6Q1dq+iiRx0VAc89e6jD
I+qOhcnodGBkqMEHFrKHa13J+OtlIz4tM4qajwngEkWNf/5EcOGjge4wgeswCQYD
VR0TBAIwADAsBglghkgBhvhCAQ0EHxYdT3BlblNTTCBHZW5lcmF0ZWQgQ2VydGlm
aWNhdGUwHQYDVR0OBBYEFFWxieu7Xp1RVBxQrjOE/CLntkohMIGQBgNVHSMEgYgw
gYWAFNDCW9Ck1OsF/XxMDqceL6DKaE86oWqkaDBmMQswCQYDVQQGEwJERTEPMA0G
A1UECBMGQmF5ZXJuMQ8wDQYDVQQHEwZNdW5pY2gxDTALBgNVBAoTBEhvbWUxFTAT
BgNVBAsTDEFwYWNoZSBXU1M0SjEPMA0GA1UEAxMGV2VybmVyggEAMA0GCSqGSIb3
DQEBBAUAA4GBAEvnK48bGZI0Uq+1l2EzU4jA3Nv9HDAROzirWrRP5jqRZ7qJaB6b
QHC8DB0HwqBGyfvhSwIQ/H2YgdeYn0t8JEwdsWpFylvnRKPm6BeNHYdyaIakwwQI
sMoJeMAs9QE+bu/rZNxsHq10KhWH7Mm1xN5Haif3J6LrjawWucIrFs6w
-----END CERTIFICATE-----
