Certificate:
    Data:
        Version: 3 (0x2)
        Serial Number: 2 (0x2)
        Signature Algorithm: md5WithRSAEncryption
        Issuer: C=DE, ST=Bayern, L=Munich, O=Home, OU=Apache WSS4J, CN=Werner
        Validity
            Not Before: Feb 29 12:00:29 2004 GMT
            Not After : Feb 28 12:00:29 2005 GMT
        Subject: C=DE, ST=Bayern, L=Munich, O=Apache, OU=WSS4J, CN=wernerd
        Subject Public Key Info:
            Public Key Algorithm: rsaEncryption
            RSA Public Key: (1024 bit)
                Modulus (1024 bit):
                    00:ad:ce:34:88:66:c7:13:0b:41:33:37:10:df:fd:
                    87:2b:e0:3d:88:07:8d:84:7a:3c:51:1c:46:94:71:
                    77:ad:e3:b1:4c:b3:30:0e:5d:b5:72:39:ee:89:2f:
                    ab:bb:2f:08:2f:cd:de:a4:db:f7:4e:51:73:93:a2:
                    21:e0:47:9f:8b:c2:58:05:c9:f4:60:8c:89:fa:d3:
                    96:10:07:56:ce:de:06:63:e9:50:97:c1:83:3e:49:
                    67:e5:82:eb:5f:ef:85:83:01:db:62:10:8d:27:20:
                    3f:f3:03:40:6f:43:41:9e:e0:40:88:e5:bd:02:8f:
                    a9:4a:10:58:83:7c:43:42:01
                Exponent: 65537 (0x10001)
        X509v3 extensions:
            X509v3 Basic Constraints: 
                CA:FALSE
            Netscape Comment: 
                OpenSSL Generated Certificate
            X509v3 Subject Key Identifier: 
                5E:61:46:E0:09:9A:44:80:9A:A4:B2:6F:04:00:24:F3:86:D6:16:8F
            X509v3 Authority Key Identifier: 
                keyid:D0:C2:5B:D0:A4:D4:EB:05:FD:7C:4C:0E:A7:1E:2F:A0:CA:68:4F:3A
                DirName:/C=DE/ST=Bayern/L=Munich/O=Home/OU=Apache WSS4J/CN=Werner
                serial:00

    Signature Algorithm: md5WithRSAEncryption
        7c:35:e4:e7:63:18:af:26:77:1c:5f:cc:e6:89:2b:ac:8d:a2:
        f9:70:60:84:58:75:40:12:6e:b2:37:47:26:92:97:5e:f1:28:
        06:35:1a:e2:48:6b:89:f3:f0:73:52:ad:77:ce:5a:01:c0:84:
        cf:e4:3e:a4:ee:6e:ad:93:99:6b:ec:48:27:0e:f4:8c:c9:21:
        12:76:43:ce:1c:af:c6:2e:1c:c3:eb:8e:22:29:58:50:d2:0d:
        01:3e:19:df:0f:51:ea:88:37:9c:66:08:a1:df:71:73:11:20:
        b7:02:19:38:e1:2f:53:d9:0b:1f:cb:62:6c:75:fa:42:10:24:
        ff:4a
-----BEGIN CERTIFICATE-----
MIIDLTCCApagAwIBAgIBAjANBgkqhkiG9w0BAQQFADBmMQswCQYDVQQGEwJERTEP
MA0GA1UECBMGQmF5ZXJuMQ8wDQYDVQQHEwZNdW5pY2gxDTALBgNVBAoTBEhvbWUx
FTATBgNVBAsTDEFwYWNoZSBXU1M0SjEPMA0GA1UEAxMGV2VybmVyMB4XDTA0MDIy
OTEyMDAyOVoXDTA1MDIyODEyMDAyOVowYjELMAkGA1UEBhMCREUxDzANBgNVBAgT
BkJheWVybjEPMA0GA1UEBxMGTXVuaWNoMQ8wDQYDVQQKEwZBcGFjaGUxDjAMBgNV
BAsTBVdTUzRKMRAwDgYDVQQDEwd3ZXJuZXJkMIGfMA0GCSqGSIb3DQEBAQUAA4GN
ADCBiQKBgQCtzjSIZscTC0EzNxDf/Ycr4D2IB42EejxRHEaUcXet47FMszAOXbVy
Oe6JL6u7Lwgvzd6k2/dOUXOToiHgR5+LwlgFyfRgjIn605YQB1bO3gZj6VCXwYM+
SWflgutf74WDAdtiEI0nID/zA0BvQ0Ge4ECI5b0Cj6lKEFiDfENCAQIDAQABo4Hu
MIHrMAkGA1UdEwQCMAAwLAYJYIZIAYb4QgENBB8WHU9wZW5TU0wgR2VuZXJhdGVk
IENlcnRpZmljYXRlMB0GA1UdDgQWBBReYUbgCZpEgJqksm8EACTzhtYWjzCBkAYD
VR0jBIGIMIGFgBTQwlvQpNTrBf18TA6nHi+gymhPOqFqpGgwZjELMAkGA1UEBhMC
REUxDzANBgNVBAgTBkJheWVybjEPMA0GA1UEBxMGTXVuaWNoMQ0wCwYDVQQKEwRI
b21lMRUwEwYDVQQLEwxBcGFjaGUgV1NTNEoxDzANBgNVBAMTBldlcm5lcoIBADAN
BgkqhkiG9w0BAQQFAAOBgQB8NeTnYxivJnccX8zmiSusjaL5cGCEWHVAEm6yN0cm
kpde8SgGNRriSGuJ8/BzUq13zloBwITP5D6k7m6tk5lr7EgnDvSMySESdkPOHK/G
LhzD644iKVhQ0g0BPhnfD1HqiDecZgih33FzESC3Ahk44S9T2Qsfy2JsdfpCECT/
Sg==
-----END CERTIFICATE-----
