Certificate:
    Data:
        Version: 3 (0x2)
        Serial Number: 3 (0x3)
        Signature Algorithm: md5WithRSAEncryption
        Issuer: C=DE, ST=Bayern, L=Munich, O=Home, OU=Apache WSS4J, CN=Werner
        Validity
            Not Before: Mar  7 09:31:55 2004 GMT
            Not After : Mar  7 09:31:55 2005 GMT
        Subject: C=DE, ST=Bayern, L=Munich, O=Apache, OU=WSS4J, CN=wernerdDSA
        Subject Public Key Info:
            Public Key Algorithm: dsaEncryption
            DSA Public Key:
                pub: 
                    00:b1:0d:e9:65:0f:68:ec:6c:f0:10:af:c5:1c:42:
                    53:c0:43:0e:ee:66:5b:33:81:53:9f:87:a2:ef:05:
                    0e:1f:38:85:33:7e:9d:4b:d9:ba:ea:21:f4:a2:60:
                    9d:4b:b0:2a:d4:1f:5b:cb:9f:8d:d3:45:46:ef:07:
                    4c:a1:b9:2d:86:df:f0:81:6f:2a:36:37:b5:c3:8f:
                    4e:06:e7:87:06:1c:d6:aa:93:10:d8:d7:9b:57:9d:
                    2b:08:05:f5:8c:1a:fb:d2:64:dd:f4:d3:32:0f:72:
                    e6:90:03:da:a5:19:60:54:90:be:d8:d7:58:3b:1d:
                    02:70:61:28:06:dd:c6:f3:45
                P:   
                    00:fd:7f:53:81:1d:75:12:29:52:df:4a:9c:2e:ec:
                    e4:e7:f6:11:b7:52:3c:ef:44:00:c3:1e:3f:80:b6:
                    51:26:69:45:5d:40:22:51:fb:59:3d:8d:58:fa:bf:
                    c5:f5:ba:30:f6:cb:9b:55:6c:d7:81:3b:80:1d:34:
                    6f:f2:66:60:b7:6b:99:50:a5:a4:9f:9f:e8:04:7b:
                    10:22:c2:4f:bb:a9:d7:fe:b7:c6:1b:f8:3b:57:e7:
                    c6:a8:a6:15:0f:04:fb:83:f6:d3:c5:1e:c3:02:35:
                    54:13:5a:16:91:32:f6:75:f3:ae:2b:61:d7:2a:ef:
                    f2:22:03:19:9d:d1:48:01:c7
                Q:   
                    00:97:60:50:8f:15:23:0b:cc:b2:92:b9:82:a2:eb:
                    84:0b:f0:58:1c:f5
                G:   
                    00:f7:e1:a0:85:d6:9b:3d:de:cb:bc:ab:5c:36:b8:
                    57:b9:79:94:af:bb:fa:3a:ea:82:f9:57:4c:0b:3d:
                    07:82:67:51:59:57:8e:ba:d4:59:4f:e6:71:07:10:
                    81:80:b4:49:16:71:23:e8:4c:28:16:13:b7:cf:09:
                    32:8c:c8:a6:e1:3c:16:7a:8b:54:7c:8d:28:e0:a3:
                    ae:1e:2b:b3:a6:75:91:6e:a3:7f:0b:fa:21:35:62:
                    f1:fb:62:7a:01:24:3b:cc:a4:f1:be:a8:51:90:89:
                    a8:83:df:e1:5a:e5:9f:06:92:8b:66:5e:80:7b:55:
                    25:64:01:4c:3b:fe:cf:49:2a
        X509v3 extensions:
            X509v3 Basic Constraints: 
                CA:FALSE
            Netscape Comment: 
                OpenSSL Generated Certificate
            X509v3 Subject Key Identifier: 
                0A:0E:82:F4:FE:57:60:75:CA:81:4F:78:27:3F:92:78:53:28:FF:88
            X509v3 Authority Key Identifier: 
                keyid:D0:C2:5B:D0:A4:D4:EB:05:FD:7C:4C:0E:A7:1E:2F:A0:CA:68:4F:3A
                DirName:/C=DE/ST=Bayern/L=Munich/O=Home/OU=Apache WSS4J/CN=Werner
                serial:00

    Signature Algorithm: md5WithRSAEncryption
        7a:23:9b:92:0b:95:82:da:5c:f7:e1:7b:1c:76:53:68:17:3d:
        af:ec:22:94:29:a0:56:5b:4a:24:b9:cb:a5:0d:09:f2:60:cc:
        1d:48:94:ee:b5:48:f4:16:1c:6a:8c:c4:82:66:e6:05:63:54:
        65:e6:71:de:20:f4:28:06:73:ea:a8:8b:d5:8a:a1:d9:07:98:
        a7:84:00:14:2d:aa:03:92:93:02:49:e5:4c:06:72:1e:cd:df:
        98:21:f3:a3:fc:eb:86:5d:ea:ec:69:7b:99:a4:cb:d7:9c:e4:
        da:72:fe:f2:0a:d3:d4:96:a1:20:f5:96:c5:d9:81:52:f4:2a:
        26:31
-----BEGIN CERTIFICATE-----
MIIESjCCA7OgAwIBAgIBAzANBgkqhkiG9w0BAQQFADBmMQswCQYDVQQGEwJERTEP
MA0GA1UECBMGQmF5ZXJuMQ8wDQYDVQQHEwZNdW5pY2gxDTALBgNVBAoTBEhvbWUx
FTATBgNVBAsTDEFwYWNoZSBXU1M0SjEPMA0GA1UEAxMGV2VybmVyMB4XDTA0MDMw
NzA5MzE1NVoXDTA1MDMwNzA5MzE1NVowZTELMAkGA1UEBhMCREUxDzANBgNVBAgT
BkJheWVybjEPMA0GA1UEBxMGTXVuaWNoMQ8wDQYDVQQKEwZBcGFjaGUxDjAMBgNV
BAsTBVdTUzRKMRMwEQYDVQQDEwp3ZXJuZXJkRFNBMIIBuDCCASwGByqGSM44BAEw
ggEfAoGBAP1/U4EddRIpUt9KnC7s5Of2EbdSPO9EAMMeP4C2USZpRV1AIlH7WT2N
WPq/xfW6MPbLm1Vs14E7gB00b/JmYLdrmVClpJ+f6AR7ECLCT7up1/63xhv4O1fn
xqimFQ8E+4P208UewwI1VBNaFpEy9nXzrith1yrv8iIDGZ3RSAHHAhUAl2BQjxUj
C8yykrmCouuEC/BYHPUCgYEA9+GghdabPd7LvKtcNrhXuXmUr7v6OuqC+VdMCz0H
gmdRWVeOutRZT+ZxBxCBgLRJFnEj6EwoFhO3zwkyjMim4TwWeotUfI0o4KOuHiuz
pnWRbqN/C/ohNWLx+2J6ASQ7zKTxvqhRkImog9/hWuWfBpKLZl6Ae1UlZAFMO/7P
SSoDgYUAAoGBALEN6WUPaOxs8BCvxRxCU8BDDu5mWzOBU5+Hou8FDh84hTN+nUvZ
uuoh9KJgnUuwKtQfW8ufjdNFRu8HTKG5LYbf8IFvKjY3tcOPTgbnhwYc1qqTENjX
m1edKwgF9Ywa+9Jk3fTTMg9y5pAD2qUZYFSQvtjXWDsdAnBhKAbdxvNFo4HuMIHr
MAkGA1UdEwQCMAAwLAYJYIZIAYb4QgENBB8WHU9wZW5TU0wgR2VuZXJhdGVkIENl
cnRpZmljYXRlMB0GA1UdDgQWBBQKDoL0/ldgdcqBT3gnP5J4Uyj/iDCBkAYDVR0j
BIGIMIGFgBTQwlvQpNTrBf18TA6nHi+gymhPOqFqpGgwZjELMAkGA1UEBhMCREUx
DzANBgNVBAgTBkJheWVybjEPMA0GA1UEBxMGTXVuaWNoMQ0wCwYDVQQKEwRIb21l
MRUwEwYDVQQLEwxBcGFjaGUgV1NTNEoxDzANBgNVBAMTBldlcm5lcoIBADANBgkq
hkiG9w0BAQQFAAOBgQB6I5uSC5WC2lz34XscdlNoFz2v7CKUKaBWW0okuculDQny
YMwdSJTutUj0FhxqjMSCZuYFY1Rl5nHeIPQoBnPqqIvViqHZB5inhAAULaoDkpMC
SeVMBnIezd+YIfOj/OuGXersaXuZpMvXnOTacv7yCtPUlqEg9ZbF2YFS9ComMQ==
-----END CERTIFICATE-----
