Certificate:
    Data:
        Version: 3 (0x2)
        Serial Number: 6 (0x6)
        Signature Algorithm: md5WithRSAEncryption
        Issuer: C=DE, ST=Bayern, L=Munich, O=Home, OU=Apache WSS4J, CN=Werner
        Validity
            Not Before: Mar 10 16:10:24 2006 GMT
            Not After : Mar  9 16:10:24 2008 GMT
        Subject: C=DE, ST=Bayern, L=Munich, O=Apache, OU=WSS4J, CN=werner
        Subject Public Key Info:
            Public Key Algorithm: rsaEncryption
            RSA Public Key: (1023 bit)
                Modulus (1023 bit):
                    72:0b:f1:36:fc:53:b6:20:5b:0e:1f:cc:2c:c6:3f:
                    3e:f1:75:cc:25:4e:8f:ef:ec:b9:a0:70:95:ad:9a:
                    6e:2c:03:1c:33:41:4b:4c:c3:22:5e:8d:96:4c:d9:
                    cb:29:8b:0d:90:2d:7f:7c:1e:e6:27:dd:b1:cc:cc:
                    b9:45:c0:99:56:4e:92:46:a1:92:ad:68:0c:7c:04:
                    fd:50:1a:f0:08:9a:f3:56:4d:4b:55:cc:ac:95:cc:
                    f2:4c:ce:40:e2:ad:63:fc:79:19:03:8f:cc:17:37:
                    4f:4f:40:27:b2:84:83:41:3e:c9:7d:8a:17:44:6c:
                    4c:38:09:63:a2:a0:08:3d
                Exponent: 65537 (0x10001)
        X509v3 extensions:
            X509v3 Basic Constraints: 
                CA:FALSE
            Netscape Comment: 
                OpenSSL Generated Certificate
            X509v3 Subject Key Identifier: 
                E4:88:F1:D3:7B:E6:47:03:0F:95:C0:B6:91:1F:7F:15:6D:41:F1:84
            X509v3 Authority Key Identifier: 
                keyid:D0:C2:5B:D0:A4:D4:EB:05:FD:7C:4C:0E:A7:1E:2F:A0:CA:68:4F:3A
                DirName:/C=DE/ST=Bayern/L=Munich/O=Home/OU=Apache WSS4J/CN=Werner
                serial:00

    Signature Algorithm: md5WithRSAEncryption
        54:50:d9:76:0c:0f:40:f5:8d:f7:46:1a:6f:c9:f4:e3:f7:b8:
        e0:b8:dc:fa:67:36:74:c2:92:84:f9:ba:8c:d2:b5:5b:cd:a9:
        38:bf:57:2d:42:0f:78:df:9b:56:5b:0c:1f:a0:53:1f:fc:cf:
        46:e8:04:1b:9c:87:23:23:79:20:ac:6a:af:a3:29:79:4a:ab:
        46:a5:4f:12:93:97:9b:94:24:4d:e9:8e:78:25:34:6d:24:8b:
        b7:c1:f0:0e:18:ef:88:51:44:91:30:0b:79:14:36:74:9f:c2:
        b8:25:70:9e:5d:a9:60:da:7b:85:d9:cc:14:11:25:85:32:52:
        ad:09
-----BEGIN CERTIFICATE-----
MIIDKzCCApSgAwIBAgIBBjANBgkqhkiG9w0BAQQFADBmMQswCQYDVQQGEwJERTEP
MA0GA1UECBMGQmF5ZXJuMQ8wDQYDVQQHEwZNdW5pY2gxDTALBgNVBAoTBEhvbWUx
FTATBgNVBAsTDEFwYWNoZSBXU1M0SjEPMA0GA1UEAxMGV2VybmVyMB4XDTA2MDMx
MDE2MTAyNFoXDTA4MDMwOTE2MTAyNFowYTELMAkGA1UEBhMCREUxDzANBgNVBAgT
BkJheWVybjEPMA0GA1UEBxMGTXVuaWNoMQ8wDQYDVQQKEwZBcGFjaGUxDjAMBgNV
BAsTBVdTUzRKMQ8wDQYDVQQDEwZ3ZXJuZXIwgZ4wDQYJKoZIhvcNAQEBBQADgYwA
MIGIAoGAcgvxNvxTtiBbDh/MLMY/PvF1zCVOj+/suaBwla2abiwDHDNBS0zDIl6N
lkzZyymLDZAtf3we5ifdsczMuUXAmVZOkkahkq1oDHwE/VAa8Aia81ZNS1XMrJXM
8kzOQOKtY/x5GQOPzBc3T09AJ7KEg0E+yX2KF0RsTDgJY6KgCD0CAwEAAaOB7jCB
6zAJBgNVHRMEAjAAMCwGCWCGSAGG+EIBDQQfFh1PcGVuU1NMIEdlbmVyYXRlZCBD
ZXJ0aWZpY2F0ZTAdBgNVHQ4EFgQU5Ijx03vmRwMPlcC2kR9/FW1B8YQwgZAGA1Ud
IwSBiDCBhYAU0MJb0KTU6wX9fEwOpx4voMpoTzqhaqRoMGYxCzAJBgNVBAYTAkRF
MQ8wDQYDVQQIEwZCYXllcm4xDzANBgNVBAcTBk11bmljaDENMAsGA1UEChMESG9t
ZTEVMBMGA1UECxMMQXBhY2hlIFdTUzRKMQ8wDQYDVQQDEwZXZXJuZXKCAQAwDQYJ
KoZIhvcNAQEEBQADgYEAVFDZdgwPQPWN90Yab8n04/e44Ljc+mc2dMKShPm6jNK1
W82pOL9XLUIPeN+bVlsMH6BTH/zPRugEG5yHIyN5IKxqr6MpeUqrRqVPEpOXm5Qk
TemOeCU0bSSLt8HwDhjviFFEkTALeRQ2dJ/CuCVwnl2pYNp7hdnMFBElhTJSrQk=
-----END CERTIFICATE-----
