Certificate:
    Data:
        Version: 3 (0x2)
        Serial Number: 7 (0x7)
        Signature Algorithm: md5WithRSAEncryption
        Issuer: C=DE, ST=Bayern, L=Munich, O=Home, OU=Apache WSS4J, CN=Werner
        Validity
            Not Before: Mar 10 16:10:37 2006 GMT
            Not After : Mar  9 16:10:37 2008 GMT
        Subject: C=DE, ST=Bayern, L=Munich, O=Apache, OU=WSS4J, CN=wernerDSA
        Subject Public Key Info:
            Public Key Algorithm: dsaEncryption
            DSA Public Key:
                pub: 
                    00:f1:9d:7d:ba:7c:8e:bb:2d:d4:ef:06:e8:9d:8f:
                    55:d2:54:d5:fd:31:0a:2d:e7:a1:10:b8:cc:a0:3f:
                    60:5a:07:04:4d:2c:e2:14:81:a6:a7:48:4f:9a:b8:
                    5a:8c:8a:94:c8:69:4a:e7:7a:80:6a:5a:c5:f9:58:
                    1e:43:7d:bd:e3:d1:79:4f:b8:00:33:77:31:ed:c1:
                    aa:3f:a7:8a:5c:a4:dd:1a:98:0e:cc:02:ce:e7:41:
                    05:f6:5c:fc:7e:e8:06:18:1f:57:ea:16:69:25:99:
                    71:2d:b1:73:ff:36:f2:ee:bb:4a:0a:80:85:39:84:
                    f8:8b:eb:d8:f5:ef:ff:9b:fe
                P:   
                    00:fd:7f:53:81:1d:75:12:29:52:df:4a:9c:2e:ec:
                    e4:e7:f6:11:b7:52:3c:ef:44:00:c3:1e:3f:80:b6:
                    51:26:69:45:5d:40:22:51:fb:59:3d:8d:58:fa:bf:
                    c5:f5:ba:30:f6:cb:9b:55:6c:d7:81:3b:80:1d:34:
                    6f:f2:66:60:b7:6b:99:50:a5:a4:9f:9f:e8:04:7b:
                    10:22:c2:4f:bb:a9:d7:fe:b7:c6:1b:f8:3b:57:e7:
                    c6:a8:a6:15:0f:04:fb:83:f6:d3:c5:1e:c3:02:35:
                    54:13:5a:16:91:32:f6:75:f3:ae:2b:61:d7:2a:ef:
                    f2:22:03:19:9d:d1:48:01:c7
                Q:   
                    00:97:60:50:8f:15:23:0b:cc:b2:92:b9:82:a2:eb:
                    84:0b:f0:58:1c:f5
                G:   
                    00:f7:e1:a0:85:d6:9b:3d:de:cb:bc:ab:5c:36:b8:
                    57:b9:79:94:af:bb:fa:3a:ea:82:f9:57:4c:0b:3d:
                    07:82:67:51:59:57:8e:ba:d4:59:4f:e6:71:07:10:
                    81:80:b4:49:16:71:23:e8:4c:28:16:13:b7:cf:09:
                    32:8c:c8:a6:e1:3c:16:7a:8b:54:7c:8d:28:e0:a3:
                    ae:1e:2b:b3:a6:75:91:6e:a3:7f:0b:fa:21:35:62:
                    f1:fb:62:7a:01:24:3b:cc:a4:f1:be:a8:51:90:89:
                    a8:83:df:e1:5a:e5:9f:06:92:8b:66:5e:80:7b:55:
                    25:64:01:4c:3b:fe:cf:49:2a
        X509v3 extensions:
            X509v3 Basic Constraints: 
                CA:FALSE
            Netscape Comment: 
                OpenSSL Generated Certificate
            X509v3 Subject Key Identifier: 
                7D:D4:B3:14:1D:F8:86:93:29:91:B3:B7:7F:76:DB:06:05:6B:63:44
            X509v3 Authority Key Identifier: 
                keyid:D0:C2:5B:D0:A4:D4:EB:05:FD:7C:4C:0E:A7:1E:2F:A0:CA:68:4F:3A
                DirName:/C=DE/ST=Bayern/L=Munich/O=Home/OU=Apache WSS4J/CN=Werner
                serial:00

    Signature Algorithm: md5WithRSAEncryption
        76:b9:1c:89:97:28:3d:df:81:b8:29:fd:84:9c:e1:ae:19:db:
        18:53:cc:87:dc:13:90:6c:f9:40:64:a4:23:92:f7:65:06:de:
        b4:88:b0:c9:35:61:7d:d6:57:3e:de:3d:d5:83:6f:78:78:74:
        cb:f6:84:0b:24:de:02:97:5e:51:b3:e7:8f:6a:e9:cb:5f:78:
        f4:41:8d:75:55:a5:05:ae:f2:42:c5:ff:c4:39:06:ae:75:fa:
        c2:2e:dd:3d:bc:12:c9:5b:a5:f0:18:e4:f4:33:2a:b9:cf:95:
        38:b8:11:21:10:5a:3b:68:b8:e1:14:35:14:28:28:4b:a5:bb:
        fd:20
-----BEGIN CERTIFICATE-----
MIIESTCCA7KgAwIBAgIBBzANBgkqhkiG9w0BAQQFADBmMQswCQYDVQQGEwJERTEP
MA0GA1UECBMGQmF5ZXJuMQ8wDQYDVQQHEwZNdW5pY2gxDTALBgNVBAoTBEhvbWUx
FTATBgNVBAsTDEFwYWNoZSBXU1M0SjEPMA0GA1UEAxMGV2VybmVyMB4XDTA2MDMx
MDE2MTAzN1oXDTA4MDMwOTE2MTAzN1owZDELMAkGA1UEBhMCREUxDzANBgNVBAgT
BkJheWVybjEPMA0GA1UEBxMGTXVuaWNoMQ8wDQYDVQQKEwZBcGFjaGUxDjAMBgNV
BAsTBVdTUzRKMRIwEAYDVQQDEwl3ZXJuZXJEU0EwggG4MIIBLAYHKoZIzjgEATCC
AR8CgYEA/X9TgR11EilS30qcLuzk5/YRt1I870QAwx4/gLZRJmlFXUAiUftZPY1Y
+r/F9bow9subVWzXgTuAHTRv8mZgt2uZUKWkn5/oBHsQIsJPu6nX/rfGG/g7V+fG
qKYVDwT7g/bTxR7DAjVUE1oWkTL2dfOuK2HXKu/yIgMZndFIAccCFQCXYFCPFSML
zLKSuYKi64QL8Fgc9QKBgQD34aCF1ps93su8q1w2uFe5eZSvu/o66oL5V0wLPQeC
Z1FZV4661FlP5nEHEIGAtEkWcSPoTCgWE7fPCTKMyKbhPBZ6i1R8jSjgo64eK7Om
dZFuo38L+iE1YvH7YnoBJDvMpPG+qFGQiaiD3+Fa5Z8GkotmXoB7VSVkAUw7/s9J
KgOBhQACgYEA8Z19unyOuy3U7wbonY9V0lTV/TEKLeehELjMoD9gWgcETSziFIGm
p0hPmrhajIqUyGlK53qAalrF+VgeQ32949F5T7gAM3cx7cGqP6eKXKTdGpgOzALO
50EF9lz8fugGGB9X6hZpJZlxLbFz/zby7rtKCoCFOYT4i+vY9e//m/6jge4wgesw
CQYDVR0TBAIwADAsBglghkgBhvhCAQ0EHxYdT3BlblNTTCBHZW5lcmF0ZWQgQ2Vy
dGlmaWNhdGUwHQYDVR0OBBYEFH3UsxQd+IaTKZGzt3922wYFa2NEMIGQBgNVHSME
gYgwgYWAFNDCW9Ck1OsF/XxMDqceL6DKaE86oWqkaDBmMQswCQYDVQQGEwJERTEP
MA0GA1UECBMGQmF5ZXJuMQ8wDQYDVQQHEwZNdW5pY2gxDTALBgNVBAoTBEhvbWUx
FTATBgNVBAsTDEFwYWNoZSBXU1M0SjEPMA0GA1UEAxMGV2VybmVyggEAMA0GCSqG
SIb3DQEBBAUAA4GBAHa5HImXKD3fgbgp/YSc4a4Z2xhTzIfcE5Bs+UBkpCOS92UG
3rSIsMk1YX3WVz7ePdWDb3h4dMv2hAsk3gKXXlGz549q6ctfePRBjXVVpQWu8kLF
/8Q5Bq51+sIu3T28EslbpfAY5PQzKrnPlTi4ESEQWjtouOEUNRQoKEulu/0g
-----END CERTIFICATE-----
