Certificate:
    Data:
        Version: 3 (0x2)
        Serial Number: 8 (0x8)
        Signature Algorithm: md5WithRSAEncryption
        Issuer: C=DE, ST=Bayern, L=Munich, O=Home, OU=Apache WSS4J, CN=Werner
        Validity
            Not Before: Mar 10 17:01:56 2006 GMT
            Not After : Mar  9 17:01:56 2008 GMT
        Subject: C=DE, ST=Bayern, L=Munich, O=Apache, OU=WSS4J, CN=werner
        Subject Public Key Info:
            Public Key Algorithm: rsaEncryption
            RSA Public Key: (1023 bit)
                Modulus (1023 bit):
                    72:0b:f1:36:fc:53:b6:20:5b:0e:1f:cc:2c:c6:3f:
                    3e:f1:75:cc:25:4e:8f:ef:ec:b9:a0:70:95:ad:9a:
                    6e:2c:03:1c:33:41:4b:4c:c3:22:5e:8d:96:4c:d9:
                    cb:29:8b:0d:90:2d:7f:7c:1e:e6:27:dd:b1:cc:cc:
                    b9:45:c0:99:56:4e:92:46:a1:92:ad:68:0c:7c:04:
                    fd:50:1a:f0:08:9a:f3:56:4d:4b:55:cc:ac:95:cc:
                    f2:4c:ce:40:e2:ad:63:fc:79:19:03:8f:cc:17:37:
                    4f:4f:40:27:b2:84:83:41:3e:c9:7d:8a:17:44:6c:
                    4c:38:09:63:a2:a0:08:3d
                Exponent: 65537 (0x10001)
        X509v3 extensions:
            X509v3 Basic Constraints: 
                CA:FALSE
            Netscape Comment: 
                OpenSSL Generated Certificate
            X509v3 Subject Key Identifier: 
                E4:88:F1:D3:7B:E6:47:03:0F:95:C0:B6:91:1F:7F:15:6D:41:F1:84
            X509v3 Authority Key Identifier: 
                keyid:D9:95:2A:4A:3F:76:D0:87:A8:B1:F0:FF:84:B8:C0:7A:11:B9:31:76
                DirName:/C=DE/ST=Bayern/L=Munich/O=Home/OU=Apache WSS4J/CN=Werner
                serial:E6:78:00:61:07:BC:DA:46

    Signature Algorithm: md5WithRSAEncryption
        26:5b:a1:b6:20:09:b4:c9:11:79:92:f9:d8:91:e1:52:75:18:
        46:3f:47:87:59:69:e0:e5:da:ea:25:8a:d8:b3:8e:95:8f:f9:
        43:c0:55:b1:24:cb:1b:1d:31:96:1b:a4:25:14:b6:20:8f:40:
        a9:e8:f1:a5:2e:41:fc:1c:b8:23:1f:ee:aa:88:39:d0:9f:d0:
        ce:29:05:f0:24:f0:02:5b:66:26:5f:49:c1:09:89:59:2a:95:
        0a:86:70:b3:ba:14:2a:3a:9e:15:e7:18:69:b0:1e:e2:04:90:
        3a:68:b6:f8:77:a8:98:c6:7a:b5:15:ee:87:fd:90:af:71:21:
        a1:b8
-----BEGIN CERTIFICATE-----
MIIDMzCCApygAwIBAgIBCDANBgkqhkiG9w0BAQQFADBmMQswCQYDVQQGEwJERTEP
MA0GA1UECBMGQmF5ZXJuMQ8wDQYDVQQHEwZNdW5pY2gxDTALBgNVBAoTBEhvbWUx
FTATBgNVBAsTDEFwYWNoZSBXU1M0SjEPMA0GA1UEAxMGV2VybmVyMB4XDTA2MDMx
MDE3MDE1NloXDTA4MDMwOTE3MDE1NlowYTELMAkGA1UEBhMCREUxDzANBgNVBAgT
BkJheWVybjEPMA0GA1UEBxMGTXVuaWNoMQ8wDQYDVQQKEwZBcGFjaGUxDjAMBgNV
BAsTBVdTUzRKMQ8wDQYDVQQDEwZ3ZXJuZXIwgZ4wDQYJKoZIhvcNAQEBBQADgYwA
MIGIAoGAcgvxNvxTtiBbDh/MLMY/PvF1zCVOj+/suaBwla2abiwDHDNBS0zDIl6N
lkzZyymLDZAtf3we5ifdsczMuUXAmVZOkkahkq1oDHwE/VAa8Aia81ZNS1XMrJXM
8kzOQOKtY/x5GQOPzBc3T09AJ7KEg0E+yX2KF0RsTDgJY6KgCD0CAwEAAaOB9jCB
8zAJBgNVHRMEAjAAMCwGCWCGSAGG+EIBDQQfFh1PcGVuU1NMIEdlbmVyYXRlZCBD
ZXJ0aWZpY2F0ZTAdBgNVHQ4EFgQU5Ijx03vmRwMPlcC2kR9/FW1B8YQwgZgGA1Ud
IwSBkDCBjYAU2ZUqSj920IeosfD/hLjAehG5MXahaqRoMGYxCzAJBgNVBAYTAkRF
MQ8wDQYDVQQIEwZCYXllcm4xDzANBgNVBAcTBk11bmljaDENMAsGA1UEChMESG9t
ZTEVMBMGA1UECxMMQXBhY2hlIFdTUzRKMQ8wDQYDVQQDEwZXZXJuZXKCCQDmeABh
B7zaRjANBgkqhkiG9w0BAQQFAAOBgQAmW6G2IAm0yRF5kvnYkeFSdRhGP0eHWWng
5drqJYrYs46Vj/lDwFWxJMsbHTGWG6QlFLYgj0Cp6PGlLkH8HLgjH+6qiDnQn9DO
KQXwJPACW2YmX0nBCYlZKpUKhnCzuhQqOp4V5xhpsB7iBJA6aLb4d6iYxnq1Fe6H
/ZCvcSGhuA==
-----END CERTIFICATE-----
