Certificate:
    Data:
        Version: 3 (0x2)
        Serial Number: 9 (0x9)
        Signature Algorithm: md5WithRSAEncryption
        Issuer: C=DE, ST=Bayern, L=Munich, O=Home, OU=Apache WSS4J, CN=Werner
        Validity
            Not Before: Mar 10 17:02:07 2006 GMT
            Not After : Mar  9 17:02:07 2008 GMT
        Subject: C=DE, ST=Bayern, L=Munich, O=Apache, OU=WSS4J, CN=wernerDSA
        Subject Public Key Info:
            Public Key Algorithm: dsaEncryption
            DSA Public Key:
                pub: 
                    00:f1:9d:7d:ba:7c:8e:bb:2d:d4:ef:06:e8:9d:8f:
                    55:d2:54:d5:fd:31:0a:2d:e7:a1:10:b8:cc:a0:3f:
                    60:5a:07:04:4d:2c:e2:14:81:a6:a7:48:4f:9a:b8:
                    5a:8c:8a:94:c8:69:4a:e7:7a:80:6a:5a:c5:f9:58:
                    1e:43:7d:bd:e3:d1:79:4f:b8:00:33:77:31:ed:c1:
                    aa:3f:a7:8a:5c:a4:dd:1a:98:0e:cc:02:ce:e7:41:
                    05:f6:5c:fc:7e:e8:06:18:1f:57:ea:16:69:25:99:
                    71:2d:b1:73:ff:36:f2:ee:bb:4a:0a:80:85:39:84:
                    f8:8b:eb:d8:f5:ef:ff:9b:fe
                P:   
                    00:fd:7f:53:81:1d:75:12:29:52:df:4a:9c:2e:ec:
                    e4:e7:f6:11:b7:52:3c:ef:44:00:c3:1e:3f:80:b6:
                    51:26:69:45:5d:40:22:51:fb:59:3d:8d:58:fa:bf:
                    c5:f5:ba:30:f6:cb:9b:55:6c:d7:81:3b:80:1d:34:
                    6f:f2:66:60:b7:6b:99:50:a5:a4:9f:9f:e8:04:7b:
                    10:22:c2:4f:bb:a9:d7:fe:b7:c6:1b:f8:3b:57:e7:
                    c6:a8:a6:15:0f:04:fb:83:f6:d3:c5:1e:c3:02:35:
                    54:13:5a:16:91:32:f6:75:f3:ae:2b:61:d7:2a:ef:
                    f2:22:03:19:9d:d1:48:01:c7
                Q:   
                    00:97:60:50:8f:15:23:0b:cc:b2:92:b9:82:a2:eb:
                    84:0b:f0:58:1c:f5
                G:   
                    00:f7:e1:a0:85:d6:9b:3d:de:cb:bc:ab:5c:36:b8:
                    57:b9:79:94:af:bb:fa:3a:ea:82:f9:57:4c:0b:3d:
                    07:82:67:51:59:57:8e:ba:d4:59:4f:e6:71:07:10:
                    81:80:b4:49:16:71:23:e8:4c:28:16:13:b7:cf:09:
                    32:8c:c8:a6:e1:3c:16:7a:8b:54:7c:8d:28:e0:a3:
                    ae:1e:2b:b3:a6:75:91:6e:a3:7f:0b:fa:21:35:62:
                    f1:fb:62:7a:01:24:3b:cc:a4:f1:be:a8:51:90:89:
                    a8:83:df:e1:5a:e5:9f:06:92:8b:66:5e:80:7b:55:
                    25:64:01:4c:3b:fe:cf:49:2a
        X509v3 extensions:
            X509v3 Basic Constraints: 
                CA:FALSE
            Netscape Comment: 
                OpenSSL Generated Certificate
            X509v3 Subject Key Identifier: 
                7D:D4:B3:14:1D:F8:86:93:29:91:B3:B7:7F:76:DB:06:05:6B:63:44
            X509v3 Authority Key Identifier: 
                keyid:D9:95:2A:4A:3F:76:D0:87:A8:B1:F0:FF:84:B8:C0:7A:11:B9:31:76
                DirName:/C=DE/ST=Bayern/L=Munich/O=Home/OU=Apache WSS4J/CN=Werner
                serial:E6:78:00:61:07:BC:DA:46

    Signature Algorithm: md5WithRSAEncryption
        23:fa:01:b9:01:68:54:a4:8a:51:26:0b:b5:7c:17:5b:f0:1c:
        03:05:f8:30:7d:ac:56:1e:46:18:ad:bc:42:cd:52:85:14:43:
        77:2a:ee:ee:66:cc:05:96:b4:37:af:25:04:1e:b5:f8:bb:34:
        db:2e:b8:3e:2c:58:00:57:92:b4:91:3b:40:e3:e0:f5:9b:7e:
        b2:10:28:97:ee:78:34:9f:70:48:22:bb:3f:14:05:a6:34:fb:
        0c:3e:58:7c:91:7e:48:70:1e:9d:fd:e5:0b:32:6a:96:83:7d:
        a4:ce:4f:ac:54:a3:fa:8f:cb:f0:3b:a3:29:f2:9e:c3:23:5a:
        10:ab
-----BEGIN CERTIFICATE-----
MIIEUTCCA7qgAwIBAgIBCTANBgkqhkiG9w0BAQQFADBmMQswCQYDVQQGEwJERTEP
MA0GA1UECBMGQmF5ZXJuMQ8wDQYDVQQHEwZNdW5pY2gxDTALBgNVBAoTBEhvbWUx
FTATBgNVBAsTDEFwYWNoZSBXU1M0SjEPMA0GA1UEAxMGV2VybmVyMB4XDTA2MDMx
MDE3MDIwN1oXDTA4MDMwOTE3MDIwN1owZDELMAkGA1UEBhMCREUxDzANBgNVBAgT
BkJheWVybjEPMA0GA1UEBxMGTXVuaWNoMQ8wDQYDVQQKEwZBcGFjaGUxDjAMBgNV
BAsTBVdTUzRKMRIwEAYDVQQDEwl3ZXJuZXJEU0EwggG4MIIBLAYHKoZIzjgEATCC
AR8CgYEA/X9TgR11EilS30qcLuzk5/YRt1I870QAwx4/gLZRJmlFXUAiUftZPY1Y
+r/F9bow9subVWzXgTuAHTRv8mZgt2uZUKWkn5/oBHsQIsJPu6nX/rfGG/g7V+fG
qKYVDwT7g/bTxR7DAjVUE1oWkTL2dfOuK2HXKu/yIgMZndFIAccCFQCXYFCPFSML
zLKSuYKi64QL8Fgc9QKBgQD34aCF1ps93su8q1w2uFe5eZSvu/o66oL5V0wLPQeC
Z1FZV4661FlP5nEHEIGAtEkWcSPoTCgWE7fPCTKMyKbhPBZ6i1R8jSjgo64eK7Om
dZFuo38L+iE1YvH7YnoBJDvMpPG+qFGQiaiD3+Fa5Z8GkotmXoB7VSVkAUw7/s9J
KgOBhQACgYEA8Z19unyOuy3U7wbonY9V0lTV/TEKLeehELjMoD9gWgcETSziFIGm
p0hPmrhajIqUyGlK53qAalrF+VgeQ32949F5T7gAM3cx7cGqP6eKXKTdGpgOzALO
50EF9lz8fugGGB9X6hZpJZlxLbFz/zby7rtKCoCFOYT4i+vY9e//m/6jgfYwgfMw
CQYDVR0TBAIwADAsBglghkgBhvhCAQ0EHxYdT3BlblNTTCBHZW5lcmF0ZWQgQ2Vy
dGlmaWNhdGUwHQYDVR0OBBYEFH3UsxQd+IaTKZGzt3922wYFa2NEMIGYBgNVHSME
gZAwgY2AFNmVKko/dtCHqLHw/4S4wHoRuTF2oWqkaDBmMQswCQYDVQQGEwJERTEP
MA0GA1UECBMGQmF5ZXJuMQ8wDQYDVQQHEwZNdW5pY2gxDTALBgNVBAoTBEhvbWUx
FTATBgNVBAsTDEFwYWNoZSBXU1M0SjEPMA0GA1UEAxMGV2VybmVyggkA5ngAYQe8
2kYwDQYJKoZIhvcNAQEEBQADgYEAI/oBuQFoVKSKUSYLtXwXW/AcAwX4MH2sVh5G
GK28Qs1ShRRDdyru7mbMBZa0N68lBB61+Ls02y64PixYAFeStJE7QOPg9Zt+shAo
l+54NJ9wSCK7PxQFpjT7DD5YfJF+SHAenf3lCzJqloN9pM5PrFSj+o/L8DujKfKe
wyNaEKs=
-----END CERTIFICATE-----
