Certificate:
    Data:
        Version: 3 (0x2)
        Serial Number: 10 (0xa)
        Signature Algorithm: md5WithRSAEncryption
        Issuer: C=DE, ST=Bayern, L=Munich, O=Home, OU=Apache WSS4J, CN=Werner
        Validity
            Not Before: Mar 10 17:04:55 2006 GMT
            Not After : Mar  9 17:04:55 2008 GMT
        Subject: C=DE, ST=Bayern, L=Munich, O=Apache, OU=WSS4J, CN=werner
        Subject Public Key Info:
            Public Key Algorithm: rsaEncryption
            RSA Public Key: (1023 bit)
                Modulus (1023 bit):
                    72:0b:f1:36:fc:53:b6:20:5b:0e:1f:cc:2c:c6:3f:
                    3e:f1:75:cc:25:4e:8f:ef:ec:b9:a0:70:95:ad:9a:
                    6e:2c:03:1c:33:41:4b:4c:c3:22:5e:8d:96:4c:d9:
                    cb:29:8b:0d:90:2d:7f:7c:1e:e6:27:dd:b1:cc:cc:
                    b9:45:c0:99:56:4e:92:46:a1:92:ad:68:0c:7c:04:
                    fd:50:1a:f0:08:9a:f3:56:4d:4b:55:cc:ac:95:cc:
                    f2:4c:ce:40:e2:ad:63:fc:79:19:03:8f:cc:17:37:
                    4f:4f:40:27:b2:84:83:41:3e:c9:7d:8a:17:44:6c:
                    4c:38:09:63:a2:a0:08:3d
                Exponent: 65537 (0x10001)
        X509v3 extensions:
            X509v3 Basic Constraints: 
                CA:FALSE
            Netscape Comment: 
                OpenSSL Generated Certificate
            X509v3 Subject Key Identifier: 
                E4:88:F1:D3:7B:E6:47:03:0F:95:C0:B6:91:1F:7F:15:6D:41:F1:84
            X509v3 Authority Key Identifier: 
                keyid:D9:95:2A:4A:3F:76:D0:87:A8:B1:F0:FF:84:B8:C0:7A:11:B9:31:76
                DirName:/C=DE/ST=Bayern/L=Munich/O=Home/OU=Apache WSS4J/CN=Werner
                serial:E6:78:00:61:07:BC:DA:46

    Signature Algorithm: md5WithRSAEncryption
        27:b1:a2:69:2d:50:38:f6:9c:b1:bd:b9:81:a3:c3:60:25:0f:
        7f:82:b9:63:16:7a:0c:2b:cc:fa:45:78:ff:9b:b9:f0:96:aa:
        28:d0:c0:98:d5:fe:bd:81:79:1e:2d:96:8e:a3:0a:bb:d8:ca:
        cf:c4:cb:d6:56:3a:cf:a7:a8:08:26:dd:97:54:29:9e:eb:93:
        8d:87:9d:3b:5c:22:9f:94:b9:43:de:e1:05:74:67:00:f5:d1:
        ca:1f:70:26:00:13:63:01:25:6c:ed:61:6e:20:19:76:68:21:
        ef:0a:f0:42:e2:2c:1c:13:23:82:7c:d4:2e:a9:38:0c:73:07:
        a8:2c
-----BEGIN CERTIFICATE-----
MIIDMzCCApygAwIBAgIBCjANBgkqhkiG9w0BAQQFADBmMQswCQYDVQQGEwJERTEP
MA0GA1UECBMGQmF5ZXJuMQ8wDQYDVQQHEwZNdW5pY2gxDTALBgNVBAoTBEhvbWUx
FTATBgNVBAsTDEFwYWNoZSBXU1M0SjEPMA0GA1UEAxMGV2VybmVyMB4XDTA2MDMx
MDE3MDQ1NVoXDTA4MDMwOTE3MDQ1NVowYTELMAkGA1UEBhMCREUxDzANBgNVBAgT
BkJheWVybjEPMA0GA1UEBxMGTXVuaWNoMQ8wDQYDVQQKEwZBcGFjaGUxDjAMBgNV
BAsTBVdTUzRKMQ8wDQYDVQQDEwZ3ZXJuZXIwgZ4wDQYJKoZIhvcNAQEBBQADgYwA
MIGIAoGAcgvxNvxTtiBbDh/MLMY/PvF1zCVOj+/suaBwla2abiwDHDNBS0zDIl6N
lkzZyymLDZAtf3we5ifdsczMuUXAmVZOkkahkq1oDHwE/VAa8Aia81ZNS1XMrJXM
8kzOQOKtY/x5GQOPzBc3T09AJ7KEg0E+yX2KF0RsTDgJY6KgCD0CAwEAAaOB9jCB
8zAJBgNVHRMEAjAAMCwGCWCGSAGG+EIBDQQfFh1PcGVuU1NMIEdlbmVyYXRlZCBD
ZXJ0aWZpY2F0ZTAdBgNVHQ4EFgQU5Ijx03vmRwMPlcC2kR9/FW1B8YQwgZgGA1Ud
IwSBkDCBjYAU2ZUqSj920IeosfD/hLjAehG5MXahaqRoMGYxCzAJBgNVBAYTAkRF
MQ8wDQYDVQQIEwZCYXllcm4xDzANBgNVBAcTBk11bmljaDENMAsGA1UEChMESG9t
ZTEVMBMGA1UECxMMQXBhY2hlIFdTUzRKMQ8wDQYDVQQDEwZXZXJuZXKCCQDmeABh
B7zaRjANBgkqhkiG9w0BAQQFAAOBgQAnsaJpLVA49pyxvbmBo8NgJQ9/grljFnoM
K8z6RXj/m7nwlqoo0MCY1f69gXkeLZaOowq72MrPxMvWVjrPp6gIJt2XVCme65ON
h507XCKflLlD3uEFdGcA9dHKH3AmABNjASVs7WFuIBl2aCHvCvBC4iwcEyOCfNQu
qTgMcweoLA==
-----END CERTIFICATE-----
