Certificate:
    Data:
        Version: 3 (0x2)
        Serial Number: 12 (0xc)
        Signature Algorithm: md5WithRSAEncryption
        Issuer: C=DE, ST=Bayern, L=Munich, O=Home, OU=Apache WSS4J, CN=Werner
        Validity
            Not Before: Mar 10 17:07:22 2006 GMT
            Not After : Mar  9 17:07:22 2008 GMT
        Subject: C=DE, ST=Bayern, L=Munich, O=Apache, OU=WSS4J, CN=Werner
        Subject Public Key Info:
            Public Key Algorithm: rsaEncryption
            RSA Public Key: (1024 bit)
                Modulus (1024 bit):
                    00:90:a9:4a:94:71:77:ca:03:bd:df:4d:3d:1c:50:
                    9a:a0:b4:a1:30:3f:34:2d:44:aa:d5:0a:b1:42:46:
                    5b:c2:d1:3b:b3:66:b6:82:8c:d0:9b:43:b7:8b:06:
                    7f:66:0e:e7:b2:0e:07:59:c0:b2:9f:77:3b:a6:ed:
                    39:e0:b4:82:67:aa:de:2a:ba:66:0d:a2:b3:4c:47:
                    21:ff:33:b2:82:b6:68:83:fa:9d:d1:e0:04:be:6b:
                    5a:f8:a9:e8:77:76:1f:06:92:26:12:f9:59:1e:65:
                    45:8c:a5:29:55:72:5b:b4:1a:6e:d2:d8:79:9b:98:
                    6f:94:88:90:e8:aa:a2:72:7f
                Exponent: 65537 (0x10001)
        X509v3 extensions:
            X509v3 Basic Constraints: 
                CA:FALSE
            Netscape Comment: 
                OpenSSL Generated Certificate
            X509v3 Subject Key Identifier: 
                C0:92:B0:AC:F1:AA:27:F4:C7:28:77:A2:0E:41:80:7A:B7:9F:5B:F0
            X509v3 Authority Key Identifier: 
                keyid:D9:95:2A:4A:3F:76:D0:87:A8:B1:F0:FF:84:B8:C0:7A:11:B9:31:76
                DirName:/C=DE/ST=Bayern/L=Munich/O=Home/OU=Apache WSS4J/CN=Werner
                serial:E6:78:00:61:07:BC:DA:46

    Signature Algorithm: md5WithRSAEncryption
        cf:54:02:2d:7c:bf:3c:b2:8c:d3:54:16:9d:57:e0:fa:ef:4f:
        fe:18:72:18:70:08:5d:8d:84:15:39:fa:02:a6:71:85:95:e7:
        0d:7c:c2:69:24:f8:35:ba:ee:a1:2e:c2:a7:31:cb:95:71:20:
        98:31:e4:60:52:94:f6:06:cc:0e:e0:b8:ae:27:a0:18:6e:eb:
        bc:f1:2d:2d:90:ba:25:f6:86:de:2b:e2:bc:c8:d2:6e:9f:a4:
        e2:d9:ad:94:49:9d:88:fc:93:b1:2c:72:77:a5:49:7d:3a:6e:
        62:ba:c4:13:cc:ff:90:ac:0d:8d:85:65:0f:36:56:8f:04:7a:
        74:b9
-----BEGIN CERTIFICATE-----
MIIDNDCCAp2gAwIBAgIBDDANBgkqhkiG9w0BAQQFADBmMQswCQYDVQQGEwJERTEP
MA0GA1UECBMGQmF5ZXJuMQ8wDQYDVQQHEwZNdW5pY2gxDTALBgNVBAoTBEhvbWUx
FTATBgNVBAsTDEFwYWNoZSBXU1M0SjEPMA0GA1UEAxMGV2VybmVyMB4XDTA2MDMx
MDE3MDcyMloXDTA4MDMwOTE3MDcyMlowYTELMAkGA1UEBhMCREUxDzANBgNVBAgT
BkJheWVybjEPMA0GA1UEBxMGTXVuaWNoMQ8wDQYDVQQKEwZBcGFjaGUxDjAMBgNV
BAsTBVdTUzRKMQ8wDQYDVQQDEwZXZXJuZXIwgZ8wDQYJKoZIhvcNAQEBBQADgY0A
MIGJAoGBAJCpSpRxd8oDvd9NPRxQmqC0oTA/NC1EqtUKsUJGW8LRO7NmtoKM0JtD
t4sGf2YO57IOB1nAsp93O6btOeC0gmeq3iq6Zg2is0xHIf8zsoK2aIP6ndHgBL5r
Wvip6Hd2HwaSJhL5WR5lRYylKVVyW7QabtLYeZuYb5SIkOiqonJ/AgMBAAGjgfYw
gfMwCQYDVR0TBAIwADAsBglghkgBhvhCAQ0EHxYdT3BlblNTTCBHZW5lcmF0ZWQg
Q2VydGlmaWNhdGUwHQYDVR0OBBYEFMCSsKzxqif0xyh3og5BgHq3n1vwMIGYBgNV
HSMEgZAwgY2AFNmVKko/dtCHqLHw/4S4wHoRuTF2oWqkaDBmMQswCQYDVQQGEwJE
RTEPMA0GA1UECBMGQmF5ZXJuMQ8wDQYDVQQHEwZNdW5pY2gxDTALBgNVBAoTBEhv
bWUxFTATBgNVBAsTDEFwYWNoZSBXU1M0SjEPMA0GA1UEAxMGV2VybmVyggkA5ngA
YQe82kYwDQYJKoZIhvcNAQEEBQADgYEAz1QCLXy/PLKM01QWnVfg+u9P/hhyGHAI
XY2EFTn6AqZxhZXnDXzCaST4NbruoS7CpzHLlXEgmDHkYFKU9gbMDuC4riegGG7r
vPEtLZC6JfaG3ivivMjSbp+k4tmtlEmdiPyTsSxyd6VJfTpuYrrEE8z/kKwNjYVl
DzZWjwR6dLk=
-----END CERTIFICATE-----
