Certificate:
    Data:
        Version: 3 (0x2)
        Serial Number: 13 (0xd)
        Signature Algorithm: md5WithRSAEncryption
        Issuer: C=DE, ST=Bayern, L=Munich, O=Home, OU=Apache WSS4J, CN=Werner
        Validity
            Not Before: Mar 10 17:07:29 2006 GMT
            Not After : Mar  9 17:07:29 2008 GMT
        Subject: C=DE, ST=Bayern, L=Munich, O=Apache, OU=WSS4J, CN=WernerDSA
        Subject Public Key Info:
            Public Key Algorithm: dsaEncryption
            DSA Public Key:
                pub: 
                    00:88:da:f5:b5:f9:81:6d:2d:19:c6:ee:63:bc:15:
                    e2:08:e3:77:18:4b:20:84:ea:3d:5f:82:a4:65:73:
                    8b:4a:e3:d6:42:70:7e:5b:da:91:71:db:01:2a:dd:
                    0c:1b:bb:22:46:31:f9:09:9b:e4:6a:ff:00:f5:dd:
                    2b:f6:ea:9e:ca:e3:0a:aa:1c:5e:8f:be:6d:ab:57:
                    60:d0:7f:1d:b4:91:40:d5:44:c4:b9:29:49:a4:18:
                    fd:31:7a:af:d2:b5:df:9f:c4:20:78:8e:a5:48:b0:
                    f1:e4:92:67:61:d1:be:76:b2:d7:d9:d9:40:f8:f1:
                    7e:d2:51:62:3a:02:eb:2c:2d
                P:   
                    00:fd:7f:53:81:1d:75:12:29:52:df:4a:9c:2e:ec:
                    e4:e7:f6:11:b7:52:3c:ef:44:00:c3:1e:3f:80:b6:
                    51:26:69:45:5d:40:22:51:fb:59:3d:8d:58:fa:bf:
                    c5:f5:ba:30:f6:cb:9b:55:6c:d7:81:3b:80:1d:34:
                    6f:f2:66:60:b7:6b:99:50:a5:a4:9f:9f:e8:04:7b:
                    10:22:c2:4f:bb:a9:d7:fe:b7:c6:1b:f8:3b:57:e7:
                    c6:a8:a6:15:0f:04:fb:83:f6:d3:c5:1e:c3:02:35:
                    54:13:5a:16:91:32:f6:75:f3:ae:2b:61:d7:2a:ef:
                    f2:22:03:19:9d:d1:48:01:c7
                Q:   
                    00:97:60:50:8f:15:23:0b:cc:b2:92:b9:82:a2:eb:
                    84:0b:f0:58:1c:f5
                G:   
                    00:f7:e1:a0:85:d6:9b:3d:de:cb:bc:ab:5c:36:b8:
                    57:b9:79:94:af:bb:fa:3a:ea:82:f9:57:4c:0b:3d:
                    07:82:67:51:59:57:8e:ba:d4:59:4f:e6:71:07:10:
                    81:80:b4:49:16:71:23:e8:4c:28:16:13:b7:cf:09:
                    32:8c:c8:a6:e1:3c:16:7a:8b:54:7c:8d:28:e0:a3:
                    ae:1e:2b:b3:a6:75:91:6e:a3:7f:0b:fa:21:35:62:
                    f1:fb:62:7a:01:24:3b:cc:a4:f1:be:a8:51:90:89:
                    a8:83:df:e1:5a:e5:9f:06:92:8b:66:5e:80:7b:55:
                    25:64:01:4c:3b:fe:cf:49:2a
        X509v3 extensions:
            X509v3 Basic Constraints: 
                CA:FALSE
            Netscape Comment: 
                OpenSSL Generated Certificate
            X509v3 Subject Key Identifier: 
                93:A5:0D:37:7D:E9:1F:88:58:29:D5:8E:21:CE:E1:E4:17:5C:ED:DC
            X509v3 Authority Key Identifier: 
                keyid:D9:95:2A:4A:3F:76:D0:87:A8:B1:F0:FF:84:B8:C0:7A:11:B9:31:76
                DirName:/C=DE/ST=Bayern/L=Munich/O=Home/OU=Apache WSS4J/CN=Werner
                serial:E6:78:00:61:07:BC:DA:46

    Signature Algorithm: md5WithRSAEncryption
        81:07:ab:24:e4:30:da:49:e0:30:8f:63:ca:54:65:af:37:2c:
        f8:3e:b0:d2:88:60:6d:b9:16:e9:90:e5:db:d6:c2:db:79:0a:
        2c:1c:fb:d3:cb:f2:a7:fb:60:dc:ee:1c:92:a6:fc:58:da:3c:
        85:3e:21:05:c7:57:74:20:37:e1:3e:d7:19:de:60:5a:0d:dc:
        60:aa:14:40:8f:e1:cf:3b:be:97:cb:18:22:19:8f:43:e7:37:
        0f:68:f8:d9:89:98:b3:8d:b1:76:a3:e7:00:b3:c5:68:38:78:
        da:d3:b5:63:b2:0b:0a:57:f5:98:0c:de:01:09:5b:8b:ee:12:
        17:8e
-----BEGIN CERTIFICATE-----
MIIEUTCCA7qgAwIBAgIBDTANBgkqhkiG9w0BAQQFADBmMQswCQYDVQQGEwJERTEP
MA0GA1UECBMGQmF5ZXJuMQ8wDQYDVQQHEwZNdW5pY2gxDTALBgNVBAoTBEhvbWUx
FTATBgNVBAsTDEFwYWNoZSBXU1M0SjEPMA0GA1UEAxMGV2VybmVyMB4XDTA2MDMx
MDE3MDcyOVoXDTA4MDMwOTE3MDcyOVowZDELMAkGA1UEBhMCREUxDzANBgNVBAgT
BkJheWVybjEPMA0GA1UEBxMGTXVuaWNoMQ8wDQYDVQQKEwZBcGFjaGUxDjAMBgNV
BAsTBVdTUzRKMRIwEAYDVQQDEwlXZXJuZXJEU0EwggG4MIIBLAYHKoZIzjgEATCC
AR8CgYEA/X9TgR11EilS30qcLuzk5/YRt1I870QAwx4/gLZRJmlFXUAiUftZPY1Y
+r/F9bow9subVWzXgTuAHTRv8mZgt2uZUKWkn5/oBHsQIsJPu6nX/rfGG/g7V+fG
qKYVDwT7g/bTxR7DAjVUE1oWkTL2dfOuK2HXKu/yIgMZndFIAccCFQCXYFCPFSML
zLKSuYKi64QL8Fgc9QKBgQD34aCF1ps93su8q1w2uFe5eZSvu/o66oL5V0wLPQeC
Z1FZV4661FlP5nEHEIGAtEkWcSPoTCgWE7fPCTKMyKbhPBZ6i1R8jSjgo64eK7Om
dZFuo38L+iE1YvH7YnoBJDvMpPG+qFGQiaiD3+Fa5Z8GkotmXoB7VSVkAUw7/s9J
KgOBhQACgYEAiNr1tfmBbS0Zxu5jvBXiCON3GEsghOo9X4KkZXOLSuPWQnB+W9qR
cdsBKt0MG7siRjH5CZvkav8A9d0r9uqeyuMKqhxej75tq1dg0H8dtJFA1UTEuSlJ
pBj9MXqv0rXfn8QgeI6lSLDx5JJnYdG+drLX2dlA+PF+0lFiOgLrLC2jgfYwgfMw
CQYDVR0TBAIwADAsBglghkgBhvhCAQ0EHxYdT3BlblNTTCBHZW5lcmF0ZWQgQ2Vy
dGlmaWNhdGUwHQYDVR0OBBYEFJOlDTd96R+IWCnVjiHO4eQXXO3cMIGYBgNVHSME
gZAwgY2AFNmVKko/dtCHqLHw/4S4wHoRuTF2oWqkaDBmMQswCQYDVQQGEwJERTEP
MA0GA1UECBMGQmF5ZXJuMQ8wDQYDVQQHEwZNdW5pY2gxDTALBgNVBAoTBEhvbWUx
FTATBgNVBAsTDEFwYWNoZSBXU1M0SjEPMA0GA1UEAxMGV2VybmVyggkA5ngAYQe8
2kYwDQYJKoZIhvcNAQEEBQADgYEAgQerJOQw2kngMI9jylRlrzcs+D6w0ohgbbkW
6ZDl29bC23kKLBz708vyp/tg3O4ckqb8WNo8hT4hBcdXdCA34T7XGd5gWg3cYKoU
QI/hzzu+l8sYIhmPQ+c3D2j42YmYs42xdqPnALPFaDh42tO1Y7ILClf1mAzeAQlb
i+4SF44=
-----END CERTIFICATE-----
