Certificate:
    Data:
        Version: 3 (0x2)
        Serial Number: 14 (0xe)
        Signature Algorithm: md5WithRSAEncryption
        Issuer: C=DE, ST=Bayern, L=Munich, O=Home, OU=Apache WSS4J, CN=Werner
        Validity
            Not Before: Apr  4 19:20:01 2008 GMT
            Not After : Apr  4 19:20:01 2010 GMT
        Subject: C=DE, ST=Bayern, L=Munich, O=Apache, OU=WSS4J, CN=Werner
        Subject Public Key Info:
            Public Key Algorithm: rsaEncryption
            RSA Public Key: (1024 bit)
                Modulus (1024 bit):
                    00:83:0f:ed:d5:f1:69:5f:b1:30:81:13:2b:0c:84:
                    ff:d4:9c:f3:7b:4e:25:d0:b2:40:6c:d5:38:6f:fb:
                    24:2f:eb:6e:3a:66:37:a9:d0:24:4e:1c:d5:c9:b4:
                    09:8b:a3:2d:0f:04:77:8d:9c:6a:56:99:1e:ec:18:
                    54:01:29:8f:ef:71:bc:18:b2:65:53:33:e8:f5:41:
                    f8:81:15:04:23:11:95:50:74:fd:0e:7a:71:f4:09:
                    84:16:53:a7:b1:ca:2e:7d:39:40:91:ee:0f:02:49:
                    fd:73:b9:71:9e:7b:ad:61:7a:67:62:f7:9d:c1:ed:
                    e9:e8:af:bc:11:9a:a4:b3:19
                Exponent: 65537 (0x10001)
        X509v3 extensions:
            X509v3 Basic Constraints: 
                CA:FALSE
            Netscape Comment: 
                OpenSSL Generated Certificate
            X509v3 Subject Key Identifier: 
                A2:3D:00:CA:A7:14:92:0E:6F:F6:78:CB:92:51:D0:82:40:CE:E1:EC
            X509v3 Authority Key Identifier: 
                keyid:D2:7A:D8:87:17:51:5D:D6:7E:08:E9:B4:62:BF:E0:55:59:80:9E:BF
                DirName:/C=DE/ST=Bayern/L=Munich/O=Home/OU=Apache WSS4J/CN=Werner
                serial:C2:BC:B4:0E:8B:70:1B:B1

    Signature Algorithm: md5WithRSAEncryption
        04:6f:22:87:5b:3f:ad:f7:04:48:b6:1f:37:fb:56:0c:48:6a:
        d8:25:ea:7a:72:09:37:bb:83:03:ea:51:9d:e9:99:88:6f:7b:
        42:95:f7:e7:af:a9:3b:cc:a3:91:a1:49:f8:e1:ad:88:51:cd:
        64:ce:1b:8b:89:1e:bb:4c:7a:f1:bf:2c:69:41:f2:c1:26:d1:
        8f:3e:60:4c:fb:84:46:ed:f2:b7:8a:a2:ba:7b:cb:df:2d:23:
        29:d9:da:05:5c:2a:83:d6:89:c8:7f:92:66:ab:00:ec:f4:d9:
        56:8d:02:f3:2f:3d:de:a7:ef:0f:ba:8d:45:ff:e4:f1:69:22:
        24:28
-----BEGIN CERTIFICATE-----
MIIDNDCCAp2gAwIBAgIBDjANBgkqhkiG9w0BAQQFADBmMQswCQYDVQQGEwJERTEP
MA0GA1UECBMGQmF5ZXJuMQ8wDQYDVQQHEwZNdW5pY2gxDTALBgNVBAoTBEhvbWUx
FTATBgNVBAsTDEFwYWNoZSBXU1M0SjEPMA0GA1UEAxMGV2VybmVyMB4XDTA4MDQw
NDE5MjAwMVoXDTEwMDQwNDE5MjAwMVowYTELMAkGA1UEBhMCREUxDzANBgNVBAgT
BkJheWVybjEPMA0GA1UEBxMGTXVuaWNoMQ8wDQYDVQQKEwZBcGFjaGUxDjAMBgNV
BAsTBVdTUzRKMQ8wDQYDVQQDEwZXZXJuZXIwgZ8wDQYJKoZIhvcNAQEBBQADgY0A
MIGJAoGBAIMP7dXxaV+xMIETKwyE/9Sc83tOJdCyQGzVOG/7JC/rbjpmN6nQJE4c
1cm0CYujLQ8Ed42calaZHuwYVAEpj+9xvBiyZVMz6PVB+IEVBCMRlVB0/Q56cfQJ
hBZTp7HKLn05QJHuDwJJ/XO5cZ57rWF6Z2L3ncHt6eivvBGapLMZAgMBAAGjgfYw
gfMwCQYDVR0TBAIwADAsBglghkgBhvhCAQ0EHxYdT3BlblNTTCBHZW5lcmF0ZWQg
Q2VydGlmaWNhdGUwHQYDVR0OBBYEFKI9AMqnFJIOb/Z4y5JR0IJAzuHsMIGYBgNV
HSMEgZAwgY2AFNJ62IcXUV3WfgjptGK/4FVZgJ6/oWqkaDBmMQswCQYDVQQGEwJE
RTEPMA0GA1UECBMGQmF5ZXJuMQ8wDQYDVQQHEwZNdW5pY2gxDTALBgNVBAoTBEhv
bWUxFTATBgNVBAsTDEFwYWNoZSBXU1M0SjEPMA0GA1UEAxMGV2VybmVyggkAwry0
DotwG7EwDQYJKoZIhvcNAQEEBQADgYEABG8ih1s/rfcESLYfN/tWDEhq2CXqenIJ
N7uDA+pRnemZiG97QpX356+pO8yjkaFJ+OGtiFHNZM4bi4keu0x68b8saUHywSbR
jz5gTPuERu3yt4qiunvL3y0jKdnaBVwqg9aJyH+SZqsA7PTZVo0C8y893qfvD7qN
Rf/k8WkiJCg=
-----END CERTIFICATE-----
