Certificate:
    Data:
        Version: 3 (0x2)
        Serial Number: 15 (0xf)
        Signature Algorithm: md5WithRSAEncryption
        Issuer: C=DE, ST=Bayern, L=Munich, O=Home, OU=Apache WSS4J, CN=Werner
        Validity
            Not Before: Apr  4 19:20:17 2008 GMT
            Not After : Apr  4 19:20:17 2010 GMT
        Subject: C=DE, ST=Bayern, L=Munich, O=Apache, OU=WSS4J, CN=WernerDSA
        Subject Public Key Info:
            Public Key Algorithm: dsaEncryption
            DSA Public Key:
                pub: 
                    00:b8:0e:dd:18:df:90:ea:73:22:24:cf:e8:20:8a:
                    f8:af:bd:9d:42:f4:84:dc:9e:8b:f1:6f:70:7f:f3:
                    fb:e1:29:7f:a6:d9:9e:48:97:80:c3:99:79:0b:34:
                    10:95:46:b1:68:7f:2d:b3:71:57:d2:17:f8:40:9b:
                    b2:49:6c:26:ad:3d:36:e0:27:46:f5:2d:62:af:c2:
                    e7:83:19:a6:47:72:a6:0f:ab:8d:3b:72:99:c9:5d:
                    7d:d8:54:85:c5:0b:38:da:2f:ee:77:c1:21:25:22:
                    dd:ca:01:32:a8:66:bc:c6:81:d9:cb:d4:09:d8:d1:
                    ae:b5:f2:c9:c4:4b:9e:b6:8c
                P:   
                    00:fd:7f:53:81:1d:75:12:29:52:df:4a:9c:2e:ec:
                    e4:e7:f6:11:b7:52:3c:ef:44:00:c3:1e:3f:80:b6:
                    51:26:69:45:5d:40:22:51:fb:59:3d:8d:58:fa:bf:
                    c5:f5:ba:30:f6:cb:9b:55:6c:d7:81:3b:80:1d:34:
                    6f:f2:66:60:b7:6b:99:50:a5:a4:9f:9f:e8:04:7b:
                    10:22:c2:4f:bb:a9:d7:fe:b7:c6:1b:f8:3b:57:e7:
                    c6:a8:a6:15:0f:04:fb:83:f6:d3:c5:1e:c3:02:35:
                    54:13:5a:16:91:32:f6:75:f3:ae:2b:61:d7:2a:ef:
                    f2:22:03:19:9d:d1:48:01:c7
                Q:   
                    00:97:60:50:8f:15:23:0b:cc:b2:92:b9:82:a2:eb:
                    84:0b:f0:58:1c:f5
                G:   
                    00:f7:e1:a0:85:d6:9b:3d:de:cb:bc:ab:5c:36:b8:
                    57:b9:79:94:af:bb:fa:3a:ea:82:f9:57:4c:0b:3d:
                    07:82:67:51:59:57:8e:ba:d4:59:4f:e6:71:07:10:
                    81:80:b4:49:16:71:23:e8:4c:28:16:13:b7:cf:09:
                    32:8c:c8:a6:e1:3c:16:7a:8b:54:7c:8d:28:e0:a3:
                    ae:1e:2b:b3:a6:75:91:6e:a3:7f:0b:fa:21:35:62:
                    f1:fb:62:7a:01:24:3b:cc:a4:f1:be:a8:51:90:89:
                    a8:83:df:e1:5a:e5:9f:06:92:8b:66:5e:80:7b:55:
                    25:64:01:4c:3b:fe:cf:49:2a
        X509v3 extensions:
            X509v3 Basic Constraints: 
                CA:FALSE
            Netscape Comment: 
                OpenSSL Generated Certificate
            X509v3 Subject Key Identifier: 
                6C:31:82:3D:76:DA:97:6D:88:C3:A0:F3:C8:97:A6:17:C9:BC:4B:AC
            X509v3 Authority Key Identifier: 
                keyid:D2:7A:D8:87:17:51:5D:D6:7E:08:E9:B4:62:BF:E0:55:59:80:9E:BF
                DirName:/C=DE/ST=Bayern/L=Munich/O=Home/OU=Apache WSS4J/CN=Werner
                serial:C2:BC:B4:0E:8B:70:1B:B1

    Signature Algorithm: md5WithRSAEncryption
        83:03:c8:50:b2:0e:29:b2:22:18:ac:26:4d:05:4a:0f:68:d8:
        6b:80:41:45:90:20:a3:1d:03:d5:c2:69:48:15:ac:52:2e:3f:
        2f:8a:9a:26:ab:00:5e:53:44:a3:ef:fe:c0:66:44:9b:a8:fa:
        02:79:4c:fe:81:8c:d7:2f:24:4a:78:ee:d3:31:08:8a:d7:2e:
        19:de:9a:57:27:ea:a6:f3:a6:c6:3c:2f:72:0f:3e:7d:d1:25:
        2d:19:3f:d4:85:06:45:e6:7b:84:d9:1d:0e:35:58:cc:98:d9:
        3d:a5:7c:5a:33:7a:a4:9d:d2:29:76:28:1b:15:14:2b:40:be:
        0d:92
-----BEGIN CERTIFICATE-----
MIIEUTCCA7qgAwIBAgIBDzANBgkqhkiG9w0BAQQFADBmMQswCQYDVQQGEwJERTEP
MA0GA1UECBMGQmF5ZXJuMQ8wDQYDVQQHEwZNdW5pY2gxDTALBgNVBAoTBEhvbWUx
FTATBgNVBAsTDEFwYWNoZSBXU1M0SjEPMA0GA1UEAxMGV2VybmVyMB4XDTA4MDQw
NDE5MjAxN1oXDTEwMDQwNDE5MjAxN1owZDELMAkGA1UEBhMCREUxDzANBgNVBAgT
BkJheWVybjEPMA0GA1UEBxMGTXVuaWNoMQ8wDQYDVQQKEwZBcGFjaGUxDjAMBgNV
BAsTBVdTUzRKMRIwEAYDVQQDEwlXZXJuZXJEU0EwggG4MIIBLAYHKoZIzjgEATCC
AR8CgYEA/X9TgR11EilS30qcLuzk5/YRt1I870QAwx4/gLZRJmlFXUAiUftZPY1Y
+r/F9bow9subVWzXgTuAHTRv8mZgt2uZUKWkn5/oBHsQIsJPu6nX/rfGG/g7V+fG
qKYVDwT7g/bTxR7DAjVUE1oWkTL2dfOuK2HXKu/yIgMZndFIAccCFQCXYFCPFSML
zLKSuYKi64QL8Fgc9QKBgQD34aCF1ps93su8q1w2uFe5eZSvu/o66oL5V0wLPQeC
Z1FZV4661FlP5nEHEIGAtEkWcSPoTCgWE7fPCTKMyKbhPBZ6i1R8jSjgo64eK7Om
dZFuo38L+iE1YvH7YnoBJDvMpPG+qFGQiaiD3+Fa5Z8GkotmXoB7VSVkAUw7/s9J
KgOBhQACgYEAuA7dGN+Q6nMiJM/oIIr4r72dQvSE3J6L8W9wf/P74Sl/ptmeSJeA
w5l5CzQQlUaxaH8ts3FX0hf4QJuySWwmrT024CdG9S1ir8LngxmmR3KmD6uNO3KZ
yV192FSFxQs42i/ud8EhJSLdygEyqGa8xoHZy9QJ2NGutfLJxEuetoyjgfYwgfMw
CQYDVR0TBAIwADAsBglghkgBhvhCAQ0EHxYdT3BlblNTTCBHZW5lcmF0ZWQgQ2Vy
dGlmaWNhdGUwHQYDVR0OBBYEFGwxgj122pdtiMOg88iXphfJvEusMIGYBgNVHSME
gZAwgY2AFNJ62IcXUV3WfgjptGK/4FVZgJ6/oWqkaDBmMQswCQYDVQQGEwJERTEP
MA0GA1UECBMGQmF5ZXJuMQ8wDQYDVQQHEwZNdW5pY2gxDTALBgNVBAoTBEhvbWUx
FTATBgNVBAsTDEFwYWNoZSBXU1M0SjEPMA0GA1UEAxMGV2VybmVyggkAwry0Dotw
G7EwDQYJKoZIhvcNAQEEBQADgYEAgwPIULIOKbIiGKwmTQVKD2jYa4BBRZAgox0D
1cJpSBWsUi4/L4qaJqsAXlNEo+/+wGZEm6j6AnlM/oGM1y8kSnju0zEIitcuGd6a
VyfqpvOmxjwvcg8+fdElLRk/1IUGReZ7hNkdDjVYzJjZPaV8WjN6pJ3SKXYoGxUU
K0C+DZI=
-----END CERTIFICATE-----
