Certificate:
    Data:
        Version: 3 (0x2)
        Serial Number: 16 (0x10)
        Signature Algorithm: md5WithRSAEncryption
        Issuer: C=DE, ST=Bayern, L=Munich, O=Home, OU=Apache WSS4J, CN=Werner
        Validity
            Not Before: Apr  4 19:32:18 2008 GMT
            Not After : Apr  4 19:32:18 2010 GMT
        Subject: C=DE, ST=Bayern, L=Munich, O=Apache, OU=WSS4J, CN=Werner
        Subject Public Key Info:
            Public Key Algorithm: rsaEncryption
            RSA Public Key: (1024 bit)
                Modulus (1024 bit):
                    00:83:65:2f:7f:e4:d0:7f:f3:be:49:e9:06:d2:e8:
                    f2:3c:d7:c3:1f:c8:25:4f:c2:19:2b:fa:32:ca:89:
                    67:67:f2:67:a9:29:2e:55:c2:b9:20:54:67:fb:5f:
                    91:dc:69:bb:38:58:ab:f4:9c:ec:0f:1c:b0:89:3d:
                    80:37:fd:45:46:eb:84:ad:2a:2b:0d:15:3f:a0:e8:
                    08:82:63:4b:92:1e:37:e3:5e:26:4c:7c:62:39:b3:
                    2c:f9:99:a8:b6:1b:34:f5:eb:fe:1c:bc:09:1a:d1:
                    e8:2a:8b:4d:34:a4:07:0a:04:27:e7:03:91:f6:6b:
                    74:7d:bf:6c:d0:f4:14:42:19
                Exponent: 65537 (0x10001)
        X509v3 extensions:
            X509v3 Basic Constraints: 
                CA:FALSE
            Netscape Comment: 
                OpenSSL Generated Certificate
            X509v3 Subject Key Identifier: 
                54:99:5E:FD:08:E5:B1:BB:5C:F1:30:8F:29:70:1B:79:66:64:67:62
            X509v3 Authority Key Identifier: 
                keyid:BF:C5:B0:71:E8:94:62:0C:69:C5:35:4D:95:BF:F3:C0:5D:D8:42:FA
                DirName:/C=DE/ST=Bayern/L=Munich/O=Home/OU=Apache WSS4J/CN=Werner
                serial:B8:12:0E:01:62:75:F6:6C

    Signature Algorithm: md5WithRSAEncryption
        52:25:21:ff:03:91:55:c4:18:5f:12:21:d7:78:77:c3:60:6d:
        83:a2:a3:da:0e:95:e9:83:b4:52:d7:3f:80:46:16:c1:3d:f5:
        d0:2d:8e:ba:ba:0a:03:0c:28:1d:aa:4c:20:85:a2:25:17:25:
        20:08:80:f0:79:db:d1:2b:ff:a6:eb:87:60:3e:06:e0:d5:85:
        76:25:63:46:8a:dd:f7:47:99:25:ee:34:34:c1:ab:b9:19:a5:
        a8:84:48:18:62:82:bf:ec:2f:dc:4e:94:c7:57:16:5b:ce:b6:
        7f:91:fd:13:2a:dc:a1:c9:1e:d8:ff:b7:18:d0:06:cb:cd:ef:
        82:10
-----BEGIN CERTIFICATE-----
MIIDNDCCAp2gAwIBAgIBEDANBgkqhkiG9w0BAQQFADBmMQswCQYDVQQGEwJERTEP
MA0GA1UECBMGQmF5ZXJuMQ8wDQYDVQQHEwZNdW5pY2gxDTALBgNVBAoTBEhvbWUx
FTATBgNVBAsTDEFwYWNoZSBXU1M0SjEPMA0GA1UEAxMGV2VybmVyMB4XDTA4MDQw
NDE5MzIxOFoXDTEwMDQwNDE5MzIxOFowYTELMAkGA1UEBhMCREUxDzANBgNVBAgT
BkJheWVybjEPMA0GA1UEBxMGTXVuaWNoMQ8wDQYDVQQKEwZBcGFjaGUxDjAMBgNV
BAsTBVdTUzRKMQ8wDQYDVQQDEwZXZXJuZXIwgZ8wDQYJKoZIhvcNAQEBBQADgY0A
MIGJAoGBAINlL3/k0H/zvknpBtLo8jzXwx/IJU/CGSv6MsqJZ2fyZ6kpLlXCuSBU
Z/tfkdxpuzhYq/Sc7A8csIk9gDf9RUbrhK0qKw0VP6DoCIJjS5IeN+NeJkx8Yjmz
LPmZqLYbNPXr/hy8CRrR6CqLTTSkBwoEJ+cDkfZrdH2/bND0FEIZAgMBAAGjgfYw
gfMwCQYDVR0TBAIwADAsBglghkgBhvhCAQ0EHxYdT3BlblNTTCBHZW5lcmF0ZWQg
Q2VydGlmaWNhdGUwHQYDVR0OBBYEFFSZXv0I5bG7XPEwjylwG3lmZGdiMIGYBgNV
HSMEgZAwgY2AFL/FsHHolGIMacU1TZW/88Bd2EL6oWqkaDBmMQswCQYDVQQGEwJE
RTEPMA0GA1UECBMGQmF5ZXJuMQ8wDQYDVQQHEwZNdW5pY2gxDTALBgNVBAoTBEhv
bWUxFTATBgNVBAsTDEFwYWNoZSBXU1M0SjEPMA0GA1UEAxMGV2VybmVyggkAuBIO
AWJ19mwwDQYJKoZIhvcNAQEEBQADgYEAUiUh/wORVcQYXxIh13h3w2Btg6Kj2g6V
6YO0Utc/gEYWwT310C2OuroKAwwoHapMIIWiJRclIAiA8Hnb0Sv/puuHYD4G4NWF
diVjRord90eZJe40NMGruRmlqIRIGGKCv+wv3E6Ux1cWW862f5H9Eyrcocke2P+3
GNAGy83vghA=
-----END CERTIFICATE-----
