Certificate:
    Data:
        Version: 3 (0x2)
        Serial Number: 17 (0x11)
        Signature Algorithm: md5WithRSAEncryption
        Issuer: C=DE, ST=Bayern, L=Munich, O=Home, OU=Apache WSS4J, CN=Werner
        Validity
            Not Before: Apr  4 19:32:28 2008 GMT
            Not After : Apr  4 19:32:28 2010 GMT
        Subject: C=DE, ST=Bayern, L=Munich, O=Apache, OU=WSS4J, CN=WernerDSA
        Subject Public Key Info:
            Public Key Algorithm: dsaEncryption
            DSA Public Key:
                pub: 
                    13:ab:7a:33:39:58:6d:23:85:8b:31:cc:36:8c:4d:
                    a1:1e:72:b7:f7:ba:16:b7:d5:13:3b:3b:00:24:4a:
                    96:07:1c:c4:0f:b6:cd:c3:fa:48:10:ea:a9:46:94:
                    a1:50:9e:67:bd:f7:80:8c:09:7d:89:f8:fe:bf:ce:
                    29:4d:80:62:23:b7:12:23:96:d4:f8:2e:da:94:1f:
                    ab:6c:d2:11:9a:2a:6a:d6:92:96:57:3c:bc:45:98:
                    9e:e7:1f:ab:58:fd:5d:d1:2d:c7:eb:4b:e8:9f:19:
                    70:ea:dd:c8:c6:b4:a4:4f:3e:78:63:a6:50:4c:f9:
                    7c:52:db:14:2b:dc:87:2a
                P:   
                    00:fd:7f:53:81:1d:75:12:29:52:df:4a:9c:2e:ec:
                    e4:e7:f6:11:b7:52:3c:ef:44:00:c3:1e:3f:80:b6:
                    51:26:69:45:5d:40:22:51:fb:59:3d:8d:58:fa:bf:
                    c5:f5:ba:30:f6:cb:9b:55:6c:d7:81:3b:80:1d:34:
                    6f:f2:66:60:b7:6b:99:50:a5:a4:9f:9f:e8:04:7b:
                    10:22:c2:4f:bb:a9:d7:fe:b7:c6:1b:f8:3b:57:e7:
                    c6:a8:a6:15:0f:04:fb:83:f6:d3:c5:1e:c3:02:35:
                    54:13:5a:16:91:32:f6:75:f3:ae:2b:61:d7:2a:ef:
                    f2:22:03:19:9d:d1:48:01:c7
                Q:   
                    00:97:60:50:8f:15:23:0b:cc:b2:92:b9:82:a2:eb:
                    84:0b:f0:58:1c:f5
                G:   
                    00:f7:e1:a0:85:d6:9b:3d:de:cb:bc:ab:5c:36:b8:
                    57:b9:79:94:af:bb:fa:3a:ea:82:f9:57:4c:0b:3d:
                    07:82:67:51:59:57:8e:ba:d4:59:4f:e6:71:07:10:
                    81:80:b4:49:16:71:23:e8:4c:28:16:13:b7:cf:09:
                    32:8c:c8:a6:e1:3c:16:7a:8b:54:7c:8d:28:e0:a3:
                    ae:1e:2b:b3:a6:75:91:6e:a3:7f:0b:fa:21:35:62:
                    f1:fb:62:7a:01:24:3b:cc:a4:f1:be:a8:51:90:89:
                    a8:83:df:e1:5a:e5:9f:06:92:8b:66:5e:80:7b:55:
                    25:64:01:4c:3b:fe:cf:49:2a
        X509v3 extensions:
            X509v3 Basic Constraints: 
                CA:FALSE
            Netscape Comment: 
                OpenSSL Generated Certificate
            X509v3 Subject Key Identifier: 
                C3:EB:D7:FD:B4:B3:CA:02:9F:3E:D8:3D:A5:76:3B:36:97:3E:E6:62
            X509v3 Authority Key Identifier: 
                keyid:BF:C5:B0:71:E8:94:62:0C:69:C5:35:4D:95:BF:F3:C0:5D:D8:42:FA
                DirName:/C=DE/ST=Bayern/L=Munich/O=Home/OU=Apache WSS4J/CN=Werner
                serial:B8:12:0E:01:62:75:F6:6C

    Signature Algorithm: md5WithRSAEncryption
        29:53:ca:fe:b0:ea:67:c9:31:2c:fa:13:12:2a:67:ee:35:71:
        c1:a1:9e:90:45:45:1c:8e:37:84:3b:ce:41:de:b5:d2:4d:da:
        ef:cb:5f:72:1d:06:e8:2e:c2:4c:2e:72:88:3a:1c:c2:13:93:
        6f:8f:04:eb:9f:85:72:e1:35:1a:04:9e:27:66:c4:e9:e6:4e:
        df:eb:8b:24:5e:74:12:f1:34:a1:b0:5d:59:9f:fd:45:c8:f9:
        26:e9:f3:94:4a:d7:7d:4f:2f:76:92:77:f4:89:bf:21:86:39:
        6e:74:d7:fa:8d:45:bf:00:38:b5:ab:17:43:e0:94:c7:51:e0:
        e2:a3
-----BEGIN CERTIFICATE-----
MIIEUDCCA7mgAwIBAgIBETANBgkqhkiG9w0BAQQFADBmMQswCQYDVQQGEwJERTEP
MA0GA1UECBMGQmF5ZXJuMQ8wDQYDVQQHEwZNdW5pY2gxDTALBgNVBAoTBEhvbWUx
FTATBgNVBAsTDEFwYWNoZSBXU1M0SjEPMA0GA1UEAxMGV2VybmVyMB4XDTA4MDQw
NDE5MzIyOFoXDTEwMDQwNDE5MzIyOFowZDELMAkGA1UEBhMCREUxDzANBgNVBAgT
BkJheWVybjEPMA0GA1UEBxMGTXVuaWNoMQ8wDQYDVQQKEwZBcGFjaGUxDjAMBgNV
BAsTBVdTUzRKMRIwEAYDVQQDEwlXZXJuZXJEU0EwggG3MIIBLAYHKoZIzjgEATCC
AR8CgYEA/X9TgR11EilS30qcLuzk5/YRt1I870QAwx4/gLZRJmlFXUAiUftZPY1Y
+r/F9bow9subVWzXgTuAHTRv8mZgt2uZUKWkn5/oBHsQIsJPu6nX/rfGG/g7V+fG
qKYVDwT7g/bTxR7DAjVUE1oWkTL2dfOuK2HXKu/yIgMZndFIAccCFQCXYFCPFSML
zLKSuYKi64QL8Fgc9QKBgQD34aCF1ps93su8q1w2uFe5eZSvu/o66oL5V0wLPQeC
Z1FZV4661FlP5nEHEIGAtEkWcSPoTCgWE7fPCTKMyKbhPBZ6i1R8jSjgo64eK7Om
dZFuo38L+iE1YvH7YnoBJDvMpPG+qFGQiaiD3+Fa5Z8GkotmXoB7VSVkAUw7/s9J
KgOBhAACgYATq3ozOVhtI4WLMcw2jE2hHnK397oWt9UTOzsAJEqWBxzED7bNw/pI
EOqpRpShUJ5nvfeAjAl9ifj+v84pTYBiI7cSI5bU+C7alB+rbNIRmipq1pKWVzy8
RZie5x+rWP1d0S3H60vonxlw6t3IxrSkTz54Y6ZQTPl8UtsUK9yHKqOB9jCB8zAJ
BgNVHRMEAjAAMCwGCWCGSAGG+EIBDQQfFh1PcGVuU1NMIEdlbmVyYXRlZCBDZXJ0
aWZpY2F0ZTAdBgNVHQ4EFgQUw+vX/bSzygKfPtg9pXY7Npc+5mIwgZgGA1UdIwSB
kDCBjYAUv8WwceiUYgxpxTVNlb/zwF3YQvqhaqRoMGYxCzAJBgNVBAYTAkRFMQ8w
DQYDVQQIEwZCYXllcm4xDzANBgNVBAcTBk11bmljaDENMAsGA1UEChMESG9tZTEV
MBMGA1UECxMMQXBhY2hlIFdTUzRKMQ8wDQYDVQQDEwZXZXJuZXKCCQC4Eg4BYnX2
bDANBgkqhkiG9w0BAQQFAAOBgQApU8r+sOpnyTEs+hMSKmfuNXHBoZ6QRUUcjjeE
O85B3rXSTdrvy19yHQboLsJMLnKIOhzCE5NvjwTrn4Vy4TUaBJ4nZsTp5k7f64sk
XnQS8TShsF1Zn/1FyPkm6fOUStd9Ty92knf0ib8hhjludNf6jUW/ADi1qxdD4JTH
UeDiow==
-----END CERTIFICATE-----
